; Function Attrs: mustprogress nounwind uwtable
define internal void @_ZNSt23_Sp_counted_ptr_inplaceIZN8facebook5velox5cache8SsdCache5writeESt6vectorINS2_8CachePinESaIS5_EEE9PinHolderSaIvELN9__gnu_cxx12_Lock_policyE2EE10_M_disposeEv(ptr nocapture noundef nonnull readonly align 8 dereferenceable(40) %this) unnamed_addr #4 align 2 personality ptr @__gxx_personality_v0 {
entry:
  %_M_impl.i = getelementptr inbounds i8, ptr %this, i64 16
  %0 = load ptr, ptr %_M_impl.i, align 8
  %_M_finish.i.i.i.i = getelementptr inbounds i8, ptr %this, i64 24
  %1 = load ptr, ptr %_M_finish.i.i.i.i, align 8
  %cmp.not3.i.i.i.i.i.i.i = icmp eq ptr %0, %1
  br i1 %cmp.not3.i.i.i.i.i.i.i, label %invoke.cont.i.i.i.i, label %for.body.i.i.i.i.i.i.i

for.body.i.i.i.i.i.i.i:                           ; preds = %entry, %_ZSt8_DestroyIN8facebook5velox5cache8CachePinEEvPT_.exit.i.i.i.i.i.i.i
  %__first.addr.04.i.i.i.i.i.i.i = phi ptr [ %incdec.ptr.i.i.i.i.i.i.i, %_ZSt8_DestroyIN8facebook5velox5cache8CachePinEEvPT_.exit.i.i.i.i.i.i.i ], [ %0, %entry ]
  %2 = load ptr, ptr %__first.addr.04.i.i.i.i.i.i.i, align 8
  %cmp.not.i.i.i.i.i.i.i.i.i.i = icmp eq ptr %2, null
  br i1 %cmp.not.i.i.i.i.i.i.i.i.i.i, label %_ZSt8_DestroyIN8facebook5velox5cache8CachePinEEvPT_.exit.i.i.i.i.i.i.i, label %if.then.i.i.i.i.i.i.i.i.i.i

if.then.i.i.i.i.i.i.i.i.i.i:                      ; preds = %for.body.i.i.i.i.i.i.i
  invoke void @_ZN8facebook5velox5cache19AsyncDataCacheEntry7releaseEv(ptr noundef nonnull align 8 dereferenceable(169) %2)
          to label %_ZSt8_DestroyIN8facebook5velox5cache8CachePinEEvPT_.exit.i.i.i.i.i.i.i unwind label %terminate.lpad.i.i.i.i.i.i.i.i.i

terminate.lpad.i.i.i.i.i.i.i.i.i:                 ; preds = %if.then.i.i.i.i.i.i.i.i.i.i
  %3 = landingpad { ptr, i32 }
          catch ptr null
  %4 = extractvalue { ptr, i32 } %3, 0
  tail call void @__clang_call_terminate(ptr %4) #25
  unreachable

_ZSt8_DestroyIN8facebook5velox5cache8CachePinEEvPT_.exit.i.i.i.i.i.i.i: ; preds = %if.then.i.i.i.i.i.i.i.i.i.i, %for.body.i.i.i.i.i.i.i
  store ptr null, ptr %__first.addr.04.i.i.i.i.i.i.i, align 8
  %incdec.ptr.i.i.i.i.i.i.i = getelementptr inbounds i8, ptr %__first.addr.04.i.i.i.i.i.i.i, i64 8
  %cmp.not.i.i.i.i.i.i.i = icmp eq ptr %incdec.ptr.i.i.i.i.i.i.i, %1
  br i1 %cmp.not.i.i.i.i.i.i.i, label %invoke.contthread-pre-split.i.i.i.i, label %for.body.i.i.i.i.i.i.i, !llvm.loop !37

invoke.contthread-pre-split.i.i.i.i:              ; preds = %_ZSt8_DestroyIN8facebook5velox5cache8CachePinEEvPT_.exit.i.i.i.i.i.i.i
  %.pr.i.i.i.i = load ptr, ptr %_M_impl.i, align 8
  br label %invoke.cont.i.i.i.i

invoke.cont.i.i.i.i:                              ; preds = %invoke.contthread-pre-split.i.i.i.i, %entry
  %5 = phi ptr [ %.pr.i.i.i.i, %invoke.contthread-pre-split.i.i.i.i ], [ %0, %entry ]
  %tobool.not.i.i.i.i.i.i = icmp eq ptr %5, null
  br i1 %tobool.not.i.i.i.i.i.i, label %_ZNSt16allocator_traitsISaIvEE7destroyIZN8facebook5velox5cache8SsdCache5writeESt6vectorINS5_8CachePinESaIS8_EEE9PinHolderEEvRS0_PT_.exit, label %if.then.i.i.i.i.i.i

if.then.i.i.i.i.i.i:                              ; preds = %invoke.cont.i.i.i.i
  tail call void @_ZdlPv(ptr noundef nonnull %5) #24
  br label %_ZNSt16allocator_traitsISaIvEE7destroyIZN8facebook5velox5cache8SsdCache5writeESt6vectorINS5_8CachePinESaIS8_EEE9PinHolderEEvRS0_PT_.exit

_ZNSt16allocator_traitsISaIvEE7destroyIZN8facebook5velox5cache8SsdCache5writeESt6vectorINS5_8CachePinESaIS8_EEE9PinHolderEEvRS0_PT_.exit: ; preds = %invoke.cont.i.i.i.i, %if.then.i.i.i.i.i.i
  ret void
}